; Function Attrs: mustprogress nofree norecurse nosync nounwind memory(readwrite, inaccessiblemem: none) uwtable
define internal void @_ZN2cvL11copyMask16uEPKhmS1_mPhmNS_5Size_IiEEPv(ptr nocapture noundef readonly %0, i64 noundef %1, ptr nocapture noundef readonly %2, i64 noundef %3, ptr nocapture noundef writeonly %4, i64 noundef %5, i64 %6, ptr nocapture readnone %7) #6 {
  %.not20.i = icmp ugt i64 %6, 4294967295
  %.sroa.0.0.extract.trunc.i = trunc i64 %6 to i32
  %9 = icmp sgt i32 %.sroa.0.0.extract.trunc.i, 0
  %or.cond.i = and i1 %.not20.i, %9
  br i1 %or.cond.i, label %.preheader.us.preheader.i, label %_ZN2cvL9copyMask_ItEEvPKhmS2_mPhmNS_5Size_IiEE.exit

.preheader.us.preheader.i:                        ; preds = %8
  %.sroa.2.0.extract.shift.i = lshr i64 %6, 32
  %.sroa.2.0.extract.trunc.i = trunc nuw i64 %.sroa.2.0.extract.shift.i to i32
  %wide.trip.count.i = and i64 %6, 2147483647
  br label %.preheader.us.i

.preheader.us.i:                                  ; preds = %._crit_edge.us.i, %.preheader.us.preheader.i
  %.in.i = phi i32 [ %18, %._crit_edge.us.i ], [ %.sroa.2.0.extract.trunc.i, %.preheader.us.preheader.i ]
  %.01523.us.i = phi ptr [ %20, %._crit_edge.us.i ], [ %0, %.preheader.us.preheader.i ]
  %.01622.us.i = phi ptr [ %19, %._crit_edge.us.i ], [ %2, %.preheader.us.preheader.i ]
  %.01721.us.i = phi ptr [ %21, %._crit_edge.us.i ], [ %4, %.preheader.us.preheader.i ]
  br label %10

10:                                               ; preds = %17, %.preheader.us.i
  %indvars.iv.i = phi i64 [ 0, %.preheader.us.i ], [ %indvars.iv.next.i, %17 ]
  %11 = getelementptr inbounds i8, ptr %.01622.us.i, i64 %indvars.iv.i
  %12 = load i8, ptr %11, align 1
  %.not18.us.i = icmp eq i8 %12, 0
  br i1 %.not18.us.i, label %17, label %13

13:                                               ; preds = %10
  %14 = getelementptr inbounds i16, ptr %.01523.us.i, i64 %indvars.iv.i
  %15 = load i16, ptr %14, align 2
  %16 = getelementptr inbounds i16, ptr %.01721.us.i, i64 %indvars.iv.i
  store i16 %15, ptr %16, align 2
  br label %17

17:                                               ; preds = %13, %10
  %indvars.iv.next.i = add nuw nsw i64 %indvars.iv.i, 1
  %exitcond.not.i = icmp eq i64 %indvars.iv.next.i, %wide.trip.count.i
  br i1 %exitcond.not.i, label %._crit_edge.us.i, label %10, !llvm.loop !25

._crit_edge.us.i:                                 ; preds = %17
  %18 = add nsw i32 %.in.i, -1
  %19 = getelementptr inbounds i8, ptr %.01622.us.i, i64 %3
  %20 = getelementptr inbounds i8, ptr %.01523.us.i, i64 %1
  %21 = getelementptr inbounds i8, ptr %.01721.us.i, i64 %5
  %.not.us.i = icmp eq i32 %18, 0
  br i1 %.not.us.i, label %_ZN2cvL9copyMask_ItEEvPKhmS2_mPhmNS_5Size_IiEE.exit, label %.preheader.us.i, !llvm.loop !26

_ZN2cvL9copyMask_ItEEvPKhmS2_mPhmNS_5Size_IiEE.exit: ; preds = %._crit_edge.us.i, %8
  ret void
}